target datalayout = "e-m:e-p270:32:32-p271:32:32-p272:64:64-i64:64-i128:128-f80:128-n8:16:32:64-S128"
target triple = "x86_64-pc-linux-gnu"

%struct.uv_pipe_s = type { ptr, ptr, i32, ptr, [2 x ptr], %union.anon, ptr, i32, i64, ptr, ptr, ptr, ptr, %struct.uv__io_s, [2 x ptr], [2 x ptr], ptr, i32, i32, ptr, i32, ptr }
%union.anon = type { [4 x ptr] }
%struct.uv__io_s = type { ptr, [2 x ptr], [2 x ptr], i32, i32, i32 }

; Function Attrs: nounwind uwtable
define dso_local void @uv__pipe_close(ptr noundef %0) #0 {
  %2 = alloca ptr, align 8
  store ptr %0, ptr %2, align 8, !tbaa !9
  %3 = load ptr, ptr %2, align 8, !tbaa !9
  %4 = getelementptr inbounds nuw %struct.uv_pipe_s, ptr %3, i32 0, i32 21
  %5 = load ptr, ptr %4, align 8, !tbaa !22
  %6 = icmp ne ptr %5, null
  br i1 %6, label %7, label %17

7:                                                ; preds = %1
  %8 = load ptr, ptr %2, align 8, !tbaa !9
  %9 = getelementptr inbounds nuw %struct.uv_pipe_s, ptr %8, i32 0, i32 21
  %10 = load ptr, ptr %9, align 8, !tbaa !22
  %11 = call i32 @unlink(ptr noundef %10) #8
  %12 = load ptr, ptr %2, align 8, !tbaa !9
  %13 = getelementptr inbounds nuw %struct.uv_pipe_s, ptr %12, i32 0, i32 21
  %14 = load ptr, ptr %13, align 8, !tbaa !22
  call void @uv__free(ptr noundef %14)
  %15 = load ptr, ptr %2, align 8, !tbaa !9
  %16 = getelementptr inbounds nuw %struct.uv_pipe_s, ptr %15, i32 0, i32 21
  store ptr null, ptr %16, align 8, !tbaa !22
  br label %17

17:                                               ; preds = %7, %1
  %18 = load ptr, ptr %2, align 8, !tbaa !9
  call void @uv__stream_close(ptr noundef %18)
  ret void
}